Certificate:
    Data:
        Version: 3 (0x2)
        Serial Number:
            1d:fd:f9:77:65:2c:60:92:95:63:b9:6d:92:c8:3c:fe
    Signature Algorithm: sha256WithRSAEncryption
        Issuer: C=PH, ST=NCR, L=Manila, O=exertvpn, OU=https://phcorner.net/members/746290/, CN=ExertConf/emailAddress=support@exertvpn.co
        Validity
            Not Before: May 17 02:27:12 2021 GMT
            Not After : Oct  1 02:27:12 2048 GMT
        Subject: C=PH, ST=NCR, L=Manila, O=exertvpn, OU=https://phcorner.net/members/746290/, CN=client/emailAddress=support@exertvpn.co
        Subject Public Key Info:
            Public Key Algorithm: rsaEncryption
                Public-Key: (1024 bit)
                Modulus:
                    00:be:e4:26:d6:10:8f:e4:e5:1e:c6:26:d5:45:69:
                    54:87:d4:66:26:88:e4:db:4a:ef:b2:b7:f7:de:bc:
                    1c:79:da:14:e8:ae:e3:22:cd:84:3e:9b:4c:b9:f9:
                    4b:34:c7:81:78:82:1f:4b:ee:0e:7c:4a:3c:8c:09:
                    51:8d:74:b3:e2:c7:1e:22:17:13:fa:d2:b7:c8:50:
                    9a:a9:93:70:16:d8:25:f4:24:63:da:fd:36:ef:bb:
                    02:df:28:14:99:46:44:5e:f7:46:ee:a7:09:8b:70:
                    92:cd:64:6d:39:fb:ed:3a:8e:b9:4d:e8:0e:ee:a5:
                    80:85:d0:4c:b3:9f:b9:1d:65
                Exponent: 65537 (0x10001)
        X509v3 extensions:
            X509v3 Basic Constraints: 
                CA:FALSE
            X509v3 Subject Key Identifier: 
                EA:DE:8A:06:E7:7C:38:7A:27:E7:D3:7D:46:97:53:38:90:C8:04:F0
            X509v3 Authority Key Identifier: 
                keyid:C2:31:D4:C9:39:86:DF:8E:16:6E:55:48:86:B1:CB:CF:CC:FE:A5:5A
                DirName:/C=PH/ST=NCR/L=Manila/O=exertvpn/OU=https://phcorner.net/members/746290//CN=ExertConf/emailAddress=support@exertvpn.co
                serial:CF:E1:B9:95:A9:DF:7E:D6

            X509v3 Extended Key Usage: 
                TLS Web Client Authentication
            X509v3 Key Usage: 
                Digital Signature
    Signature Algorithm: sha256WithRSAEncryption
         2d:39:f9:e7:fe:bf:cb:2e:e2:e8:3b:c4:12:69:6c:ef:b2:3d:
         20:77:cb:ca:25:8e:fb:98:e7:6e:c6:d3:0b:f7:37:90:af:0a:
         49:b4:da:d6:eb:ee:89:1d:3f:d3:81:51:c8:a8:1d:e7:41:af:
         d0:1e:a8:63:ef:6f:1d:56:e4:64:17:67:f1:ab:f5:1e:d4:b0:
         d2:6a:fc:ef:37:23:e7:36:5e:83:33:74:a1:72:b1:be:fd:10:
         a9:31:4a:59:e0:1d:5c:78:a5:bf:0a:bb:a2:d6:d6:66:d2:c0:
         9f:b7:38:c9:88:70:bd:a1:11:16:75:03:9d:91:ac:7c:3d:2e:
         e0:1f
-----BEGIN CERTIFICATE-----
MIIEADCCA2mgAwIBAgIQHf35d2UsYJKVY7ltksg8/jANBgkqhkiG9w0BAQsFADCB
pjELMAkGA1UEBhMCUEgxDDAKBgNVBAgMA05DUjEPMA0GA1UEBwwGTWFuaWxhMREw
DwYDVQQKDAhleGVydHZwbjEtMCsGA1UECwwkaHR0cHM6Ly9waGNvcm5lci5uZXQv
bWVtYmVycy83NDYyOTAvMRIwEAYDVQQDDAlFeGVydENvbmYxIjAgBgkqhkiG9w0B
CQEWE3N1cHBvcnRAZXhlcnR2cG4uY28wHhcNMjEwNTE3MDIyNzEyWhcNNDgxMDAx
MDIyNzEyWjCBozELMAkGA1UEBhMCUEgxDDAKBgNVBAgMA05DUjEPMA0GA1UEBwwG
TWFuaWxhMREwDwYDVQQKDAhleGVydHZwbjEtMCsGA1UECwwkaHR0cHM6Ly9waGNv
cm5lci5uZXQvbWVtYmVycy83NDYyOTAvMQ8wDQYDVQQDDAZjbGllbnQxIjAgBgkq
hkiG9w0BCQEWE3N1cHBvcnRAZXhlcnR2cG4uY28wgZ8wDQYJKoZIhvcNAQEBBQAD
gY0AMIGJAoGBAL7kJtYQj+TlHsYm1UVpVIfUZiaI5NtK77K39968HHnaFOiu4yLN
hD6bTLn5SzTHgXiCH0vuDnxKPIwJUY10s+LHHiIXE/rSt8hQmqmTcBbYJfQkY9r9
Nu+7At8oFJlGRF73Ru6nCYtwks1kbTn77TqOuU3oDu6lgIXQTLOfuR1lAgMBAAGj
ggEuMIIBKjAJBgNVHRMEAjAAMB0GA1UdDgQWBBTq3ooG53w4eifn031Gl1M4kMgE
8DCB2wYDVR0jBIHTMIHQgBTCMdTJOYbfjhZuVUiGscvPzP6lWqGBrKSBqTCBpjEL
MAkGA1UEBhMCUEgxDDAKBgNVBAgMA05DUjEPMA0GA1UEBwwGTWFuaWxhMREwDwYD
VQQKDAhleGVydHZwbjEtMCsGA1UECwwkaHR0cHM6Ly9waGNvcm5lci5uZXQvbWVt
YmVycy83NDYyOTAvMRIwEAYDVQQDDAlFeGVydENvbmYxIjAgBgkqhkiG9w0BCQEW
E3N1cHBvcnRAZXhlcnR2cG4uY2+CCQDP4bmVqd9+1jATBgNVHSUEDDAKBggrBgEF
BQcDAjALBgNVHQ8EBAMCB4AwDQYJKoZIhvcNAQELBQADgYEALTn55/6/yy7i6DvE
Emls77I9IHfLyiWO+5jnbsbTC/c3kK8KSbTa1uvuiR0/04FRyKgd50Gv0B6oY+9v
HVbkZBdn8av1HtSw0mr87zcj5zZegzN0oXKxvv0QqTFKWeAdXHilvwq7otbWZtLA
n7c4yYhwvaERFnUDnZGsfD0u4B8=
-----END CERTIFICATE-----
