Certificate:
    Data:
        Version: 3 (0x2)
        Serial Number:
            e7:fb:20:2e:3a:94:8d:5f:0a:fe:e6:d2:09:6d:93:e4
    Signature Algorithm: sha256WithRSAEncryption
        Issuer: C=PH, ST=NCR, L=Manila, O=exertvpn, OU=https://phcorner.net/members/746290/, CN=ExertConf/emailAddress=support@exertvpn.co
        Validity
            Not Before: May 17 02:27:12 2021 GMT
            Not After : Oct  1 02:27:12 2048 GMT
        Subject: C=PH, ST=NCR, L=Manila, O=exertvpn, OU=https://phcorner.net/members/746290/, CN=server/emailAddress=support@exertvpn.co
        Subject Public Key Info:
            Public Key Algorithm: rsaEncryption
                Public-Key: (1024 bit)
                Modulus:
                    00:cf:b9:09:3d:3b:bf:c7:ea:d1:96:09:31:7d:b8:
                    cb:80:ee:78:53:9b:bf:51:d2:14:b2:b6:19:80:94:
                    b9:6e:f4:d4:6c:f6:97:44:9a:36:68:8c:6b:da:f5:
                    58:9b:d0:2c:f7:21:9f:99:c6:e9:31:87:5e:2c:f6:
                    26:5d:f7:20:f3:29:ef:da:a8:da:4b:88:54:ae:35:
                    36:35:f6:31:1a:a7:da:8c:ce:2b:29:15:4d:e1:8d:
                    7d:2a:c8:b0:83:35:cd:04:36:ab:df:aa:c5:02:2e:
                    d9:9c:05:a7:f0:e6:d3:44:22:76:aa:91:b5:9c:95:
                    c7:7e:e0:76:7b:b2:5c:41:bf
                Exponent: 65537 (0x10001)
        X509v3 extensions:
            X509v3 Basic Constraints: 
                CA:FALSE
            X509v3 Subject Key Identifier: 
                AC:B0:D4:CE:9D:4C:BB:A4:36:FD:9B:2E:DF:75:64:DC:78:2F:D6:7D
            X509v3 Authority Key Identifier: 
                keyid:C2:31:D4:C9:39:86:DF:8E:16:6E:55:48:86:B1:CB:CF:CC:FE:A5:5A
                DirName:/C=PH/ST=NCR/L=Manila/O=exertvpn/OU=https://phcorner.net/members/746290//CN=ExertConf/emailAddress=support@exertvpn.co
                serial:CF:E1:B9:95:A9:DF:7E:D6

            X509v3 Extended Key Usage: 
                TLS Web Server Authentication
            X509v3 Key Usage: 
                Digital Signature, Key Encipherment
            X509v3 Subject Alternative Name: 
                DNS:server
    Signature Algorithm: sha256WithRSAEncryption
         3c:f2:37:e6:34:16:28:b2:8d:84:43:dc:bc:81:7b:93:d6:7b:
         85:00:15:be:83:cb:64:d5:23:3f:84:81:9a:3d:17:ac:9e:ce:
         26:28:01:a1:2c:16:d1:18:14:79:b9:53:d2:9c:c8:80:31:d2:
         de:4d:55:fd:af:e9:bf:75:86:6c:86:a4:b1:7e:84:1e:89:cb:
         7a:51:38:f2:9c:e8:15:f9:eb:e2:30:3f:e7:1c:db:ca:24:1e:
         9e:83:9d:38:45:d0:c7:38:e2:1b:fc:33:c1:ea:79:78:fc:09:
         7e:a7:c6:af:d6:6b:de:7d:63:80:06:8c:57:53:e7:55:2b:a4:
         14:4f
-----BEGIN CERTIFICATE-----
MIIEFDCCA32gAwIBAgIRAOf7IC46lI1fCv7m0gltk+QwDQYJKoZIhvcNAQELBQAw
gaYxCzAJBgNVBAYTAlBIMQwwCgYDVQQIDANOQ1IxDzANBgNVBAcMBk1hbmlsYTER
MA8GA1UECgwIZXhlcnR2cG4xLTArBgNVBAsMJGh0dHBzOi8vcGhjb3JuZXIubmV0
L21lbWJlcnMvNzQ2MjkwLzESMBAGA1UEAwwJRXhlcnRDb25mMSIwIAYJKoZIhvcN
AQkBFhNzdXBwb3J0QGV4ZXJ0dnBuLmNvMB4XDTIxMDUxNzAyMjcxMloXDTQ4MTAw
MTAyMjcxMlowgaMxCzAJBgNVBAYTAlBIMQwwCgYDVQQIDANOQ1IxDzANBgNVBAcM
Bk1hbmlsYTERMA8GA1UECgwIZXhlcnR2cG4xLTArBgNVBAsMJGh0dHBzOi8vcGhj
b3JuZXIubmV0L21lbWJlcnMvNzQ2MjkwLzEPMA0GA1UEAwwGc2VydmVyMSIwIAYJ
KoZIhvcNAQkBFhNzdXBwb3J0QGV4ZXJ0dnBuLmNvMIGfMA0GCSqGSIb3DQEBAQUA
A4GNADCBiQKBgQDPuQk9O7/H6tGWCTF9uMuA7nhTm79R0hSythmAlLlu9NRs9pdE
mjZojGva9Vib0Cz3IZ+Zxukxh14s9iZd9yDzKe/aqNpLiFSuNTY19jEap9qMzisp
FU3hjX0qyLCDNc0ENqvfqsUCLtmcBafw5tNEInaqkbWclcd+4HZ7slxBvwIDAQAB
o4IBQTCCAT0wCQYDVR0TBAIwADAdBgNVHQ4EFgQUrLDUzp1Mu6Q2/Zsu33Vk3Hgv
1n0wgdsGA1UdIwSB0zCB0IAUwjHUyTmG344WblVIhrHLz8z+pVqhgaykgakwgaYx
CzAJBgNVBAYTAlBIMQwwCgYDVQQIDANOQ1IxDzANBgNVBAcMBk1hbmlsYTERMA8G
A1UECgwIZXhlcnR2cG4xLTArBgNVBAsMJGh0dHBzOi8vcGhjb3JuZXIubmV0L21l
bWJlcnMvNzQ2MjkwLzESMBAGA1UEAwwJRXhlcnRDb25mMSIwIAYJKoZIhvcNAQkB
FhNzdXBwb3J0QGV4ZXJ0dnBuLmNvggkAz+G5lanfftYwEwYDVR0lBAwwCgYIKwYB
BQUHAwEwCwYDVR0PBAQDAgWgMBEGA1UdEQQKMAiCBnNlcnZlcjANBgkqhkiG9w0B
AQsFAAOBgQA88jfmNBYoso2EQ9y8gXuT1nuFABW+g8tk1SM/hIGaPResns4mKAGh
LBbRGBR5uVPSnMiAMdLeTVX9r+m/dYZshqSxfoQeict6UTjynOgV+eviMD/nHNvK
JB6eg504RdDHOOIb/DPB6nl4/Al+p8av1mvefWOABoxXU+dVK6QUTw==
-----END CERTIFICATE-----
